; Function Attrs: nounwind uwtable
define hidden ptr @SDL_GetGamepadJoystick_REAL(ptr noundef %0) local_unnamed_addr #0 {
  tail call void @SDL_LockJoysticks_REAL() #10
  %2 = tail call zeroext i1 @SDL_ObjectValid(ptr noundef %0, i32 noundef 5) #10
  br i1 %2, label %3, label %6

3:                                                ; preds = %1
  %4 = load ptr, ptr %0, align 8
  %5 = tail call zeroext i1 @SDL_IsJoystickValid(ptr noundef %4) #10
  br i1 %5, label %8, label %6

6:                                                ; preds = %3, %1
  %7 = tail call zeroext i1 (ptr, ...) @SDL_SetError_REAL(ptr noundef nonnull @.str.4, ptr noundef nonnull @.str.5) #10
  br label %10

8:                                                ; preds = %3
  %9 = load ptr, ptr %0, align 8
  br label %10

10:                                               ; preds = %8, %6
  %.0 = phi ptr [ %9, %8 ], [ null, %6 ]
  tail call void @SDL_UnlockJoysticks_REAL() #10
  ret ptr %.0
}